target datalayout = "e-m:e-p270:32:32-p271:32:32-p272:64:64-i64:64-i128:128-f80:128-n8:16:32:64-S128"
target triple = "x86_64-pc-linux-gnu"

; Function Attrs: nounwind uwtable
define internal i32 @pg_euckr_verifychar(ptr noundef %0, i32 noundef %1) #1 {
  %3 = alloca i32, align 4
  %4 = alloca ptr, align 8
  %5 = alloca i32, align 4
  %6 = alloca i32, align 4
  %7 = alloca i8, align 1
  %8 = alloca i8, align 1
  %9 = alloca i32, align 4
  store ptr %0, ptr %4, align 8
  store i32 %1, ptr %5, align 4
  call void @llvm.lifetime.start.p0(i64 4, ptr %6) #7
  call void @llvm.lifetime.start.p0(i64 1, ptr %7) #7
  call void @llvm.lifetime.start.p0(i64 1, ptr %8) #7
  %10 = load ptr, ptr %4, align 8
  %11 = getelementptr inbounds nuw i8, ptr %10, i32 1
  store ptr %11, ptr %4, align 8
  %12 = load i8, ptr %10, align 1
  store i8 %12, ptr %7, align 1
  %13 = load i8, ptr %7, align 1
  %14 = zext i8 %13 to i32
  %15 = and i32 %14, 128
  %16 = icmp ne i32 %15, 0
  br i1 %16, label %17, label %44

17:                                               ; preds = %2
  store i32 2, ptr %6, align 4
  %18 = load i32, ptr %6, align 4
  %19 = load i32, ptr %5, align 4
  %20 = icmp sgt i32 %18, %19
  br i1 %20, label %21, label %22

21:                                               ; preds = %17
  store i32 -1, ptr %3, align 4
  store i32 1, ptr %9, align 4
  br label %47

22:                                               ; preds = %17
  %23 = load i8, ptr %7, align 1
  %24 = zext i8 %23 to i32
  %25 = icmp sge i32 %24, 161
  br i1 %25, label %26, label %30

26:                                               ; preds = %22
  %27 = load i8, ptr %7, align 1
  %28 = zext i8 %27 to i32
  %29 = icmp sle i32 %28, 254
  br i1 %29, label %31, label %30

30:                                               ; preds = %26, %22
  store i32 -1, ptr %3, align 4
  store i32 1, ptr %9, align 4
  br label %47

31:                                               ; preds = %26
  %32 = load ptr, ptr %4, align 8
  %33 = getelementptr inbounds nuw i8, ptr %32, i32 1
  store ptr %33, ptr %4, align 8
  %34 = load i8, ptr %32, align 1
  store i8 %34, ptr %8, align 1
  %35 = load i8, ptr %8, align 1
  %36 = zext i8 %35 to i32
  %37 = icmp sge i32 %36, 161
  br i1 %37, label %38, label %42

38:                                               ; preds = %31
  %39 = load i8, ptr %8, align 1
  %40 = zext i8 %39 to i32
  %41 = icmp sle i32 %40, 254
  br i1 %41, label %43, label %42

42:                                               ; preds = %38, %31
  store i32 -1, ptr %3, align 4
  store i32 1, ptr %9, align 4
  br label %47

43:                                               ; preds = %38
  br label %45

44:                                               ; preds = %2
  store i32 1, ptr %6, align 4
  br label %45

45:                                               ; preds = %44, %43
  %46 = load i32, ptr %6, align 4
  store i32 %46, ptr %3, align 4
  store i32 1, ptr %9, align 4
  br label %47

47:                                               ; preds = %45, %42, %30, %21
  call void @llvm.lifetime.end.p0(i64 1, ptr %8) #7
  call void @llvm.lifetime.end.p0(i64 1, ptr %7) #7
  call void @llvm.lifetime.end.p0(i64 4, ptr %6) #7
  %48 = load i32, ptr %3, align 4
  ret i32 %48
}

; Function Attrs: nounwind uwtable
define internal i32 @pg_euckr_verifystr(ptr noundef %0, i32 noundef %1) #1 {
  %3 = alloca ptr, align 8
  %4 = alloca i32, align 4
  %5 = alloca ptr, align 8
  %6 = alloca i32, align 4
  %7 = alloca i32, align 4
  store ptr %0, ptr %3, align 8
  store i32 %1, ptr %4, align 4
  call void @llvm.lifetime.start.p0(i64 8, ptr %5) #7
  %8 = load ptr, ptr %3, align 8
  store ptr %8, ptr %5, align 8
  br label %9

9:                                                ; preds = %43, %2
  %10 = load i32, ptr %4, align 4
  %11 = icmp sgt i32 %10, 0
  br i1 %11, label %12, label %44

12:                                               ; preds = %9
  call void @llvm.lifetime.start.p0(i64 4, ptr %6) #7
  %13 = load ptr, ptr %3, align 8
  %14 = load i8, ptr %13, align 1
  %15 = zext i8 %14 to i32
  %16 = and i32 %15, 128
  %17 = icmp ne i32 %16, 0
  br i1 %17, label %25, label %18

18:                                               ; preds = %12
  %19 = load ptr, ptr %3, align 8
  %20 = load i8, ptr %19, align 1
  %21 = zext i8 %20 to i32
  %22 = icmp eq i32 %21, 0
  br i1 %22, label %23, label %24

23:                                               ; preds = %18
  store i32 3, ptr %7, align 4
  br label %41

24:                                               ; preds = %18
  store i32 1, ptr %6, align 4
  br label %33

25:                                               ; preds = %12
  %26 = load ptr, ptr %3, align 8
  %27 = load i32, ptr %4, align 4
  %28 = call i32 @pg_euckr_verifychar(ptr noundef %26, i32 noundef %27)
  store i32 %28, ptr %6, align 4
  %29 = load i32, ptr %6, align 4
  %30 = icmp eq i32 %29, -1
  br i1 %30, label %31, label %32

31:                                               ; preds = %25
  store i32 3, ptr %7, align 4
  br label %41

32:                                               ; preds = %25
  br label %33

33:                                               ; preds = %32, %24
  %34 = load i32, ptr %6, align 4
  %35 = load ptr, ptr %3, align 8
  %36 = sext i32 %34 to i64
  %37 = getelementptr inbounds i8, ptr %35, i64 %36
  store ptr %37, ptr %3, align 8
  %38 = load i32, ptr %6, align 4
  %39 = load i32, ptr %4, align 4
  %40 = sub i32 %39, %38
  store i32 %40, ptr %4, align 4
  store i32 0, ptr %7, align 4
  br label %41

41:                                               ; preds = %33, %31, %23
  call void @llvm.lifetime.end.p0(i64 4, ptr %6) #7
  %42 = load i32, ptr %7, align 4
  switch i32 %42, label %51 [
    i32 0, label %43
    i32 3, label %44
  ]

43:                                               ; preds = %41
  br label %9, !llvm.loop !10

44:                                               ; preds = %41, %9
  %45 = load ptr, ptr %3, align 8
  %46 = load ptr, ptr %5, align 8
  %47 = ptrtoint ptr %45 to i64
  %48 = ptrtoint ptr %46 to i64
  %49 = sub i64 %47, %48
  %50 = trunc i64 %49 to i32
  store i32 1, ptr %7, align 4
  call void @llvm.lifetime.end.p0(i64 8, ptr %5) #7
  ret i32 %50

51:                                               ; preds = %41
  unreachable
}