; Function Attrs: nofree norecurse nosync nounwind memory(argmem: read) uwtable
define internal i32 @pg_euckr_verifystr(ptr noundef %0, i32 noundef %1) #5 {
  %3 = icmp sgt i32 %1, 0
  br i1 %3, label %.lr.ph, label %.thread

.lr.ph:                                           ; preds = %2, %14
  %.01424 = phi ptr [ %16, %14 ], [ %0, %2 ]
  %.01523 = phi i32 [ %17, %14 ], [ %1, %2 ]
  %4 = load i8, ptr %.01424, align 1
  %.not = icmp sgt i8 %4, -1
  br i1 %.not, label %5, label %7

5:                                                ; preds = %.lr.ph
  %6 = icmp eq i8 %4, 0
  br i1 %6, label %.thread, label %14

7:                                                ; preds = %.lr.ph
  %8 = icmp ne i32 %.01523, 1
  %9 = add nsw i8 %4, 95
  %or.cond.i = icmp ult i8 %9, 94
  %or.cond16.i = select i1 %8, i1 %or.cond.i, i1 false
  br i1 %or.cond16.i, label %10, label %.thread

10:                                               ; preds = %7
  %11 = getelementptr inbounds nuw i8, ptr %.01424, i64 1
  %12 = load i8, ptr %11, align 1
  %13 = add i8 %12, 95
  %or.cond5.i = icmp ult i8 %13, 94
  br i1 %or.cond5.i, label %14, label %.thread

14:                                               ; preds = %5, %10
  %.013 = phi i32 [ 1, %5 ], [ 2, %10 ]
  %15 = zext nneg i32 %.013 to i64
  %16 = getelementptr inbounds nuw i8, ptr %.01424, i64 %15
  %17 = sub nsw i32 %.01523, %.013
  %18 = icmp sgt i32 %17, 0
  br i1 %18, label %.lr.ph, label %.thread

.thread:                                          ; preds = %14, %5, %7, %10, %2
  %.014.lcssa = phi ptr [ %0, %2 ], [ %.01424, %10 ], [ %.01424, %7 ], [ %.01424, %5 ], [ %16, %14 ]
  %19 = ptrtoint ptr %.014.lcssa to i64
  %20 = ptrtoint ptr %0 to i64
  %21 = sub i64 %19, %20
  %22 = trunc i64 %21 to i32
  ret i32 %22
}